; Function Attrs: nounwind uwtable
define hidden ptr @ASN1_d2i_bio(ptr noundef readnone captures(none) %0, ptr noundef readonly captures(none) %1, ptr noundef %2, ptr noundef %3) local_unnamed_addr #0 {
  %5 = alloca ptr, align 8
  %6 = alloca ptr, align 8
  call void @llvm.lifetime.start.p0(i64 8, ptr nonnull %5) #4
  store ptr null, ptr %5, align 8, !tbaa !6
  call void @llvm.lifetime.start.p0(i64 8, ptr nonnull %6) #4
  %7 = call fastcc i32 @asn1_d2i_read_bio(ptr noundef %2, ptr noundef %5)
  %8 = icmp slt i32 %7, 0
  %.pre = load ptr, ptr %5, align 8, !tbaa !6
  br i1 %8, label %13, label %.thread

.thread:                                          ; preds = %4
  %9 = getelementptr inbounds nuw i8, ptr %.pre, i64 8
  %10 = load ptr, ptr %9, align 8, !tbaa !11
  store ptr %10, ptr %6, align 8, !tbaa !15
  %11 = zext nneg i32 %7 to i64
  %12 = call ptr %1(ptr noundef %3, ptr noundef nonnull %6, i64 noundef %11) #4
  br label %14

13:                                               ; preds = %4
  %.not = icmp eq ptr %.pre, null
  br i1 %.not, label %15, label %14

14:                                               ; preds = %.thread, %13
  %.09 = phi ptr [ %12, %.thread ], [ null, %13 ]
  call void @BUF_MEM_free(ptr noundef nonnull %.pre) #4
  br label %15

15:                                               ; preds = %14, %13
  %.010 = phi ptr [ %.09, %14 ], [ null, %13 ]
  call void @llvm.lifetime.end.p0(i64 8, ptr nonnull %6) #4
  call void @llvm.lifetime.end.p0(i64 8, ptr nonnull %5) #4
  ret ptr %.010
}